target datalayout = "e-m:e-p270:32:32-p271:32:32-p272:64:64-i64:64-i128:128-f80:128-n8:16:32:64-S128"
target triple = "x86_64-pc-linux-gnu"

%struct.SoftAesBlock = type { i32, i32, i32, i32 }

; Function Attrs: alwaysinline nounwind
define internal ptr @memcpy.inline(ptr noalias nonnull %0, ptr noalias nonnull %1, i64 %2) #3 {
  %4 = alloca ptr, align 8
  %5 = alloca ptr, align 8
  %6 = alloca i64, align 8
  store ptr %0, ptr %4, align 8
  store ptr %1, ptr %5, align 8
  store i64 %2, ptr %6, align 8
  %7 = load ptr, ptr %4, align 8
  %8 = load ptr, ptr %5, align 8
  %9 = load i64, ptr %6, align 8
  %10 = load ptr, ptr %4, align 8
  %11 = call i64 @llvm.objectsize.i64.p0(ptr %10, i1 false, i1 true, i1 true)
  %12 = call ptr @__memcpy_chk(ptr noundef %7, ptr noundef %8, i64 noundef %9, i64 noundef %11) #8
  ret ptr %12
}

; Function Attrs: inlinehint nounwind ssp uwtable
define internal { i64, i64 } @softaes_block_xor(i64 %0, i64 %1, i64 %2, i64 %3) #2 {
  %5 = alloca %struct.SoftAesBlock, align 4
  %6 = alloca %struct.SoftAesBlock, align 4
  %7 = alloca %struct.SoftAesBlock, align 4
  %8 = getelementptr inbounds nuw { i64, i64 }, ptr %6, i32 0, i32 0
  store i64 %0, ptr %8, align 4
  %9 = getelementptr inbounds nuw { i64, i64 }, ptr %6, i32 0, i32 1
  store i64 %1, ptr %9, align 4
  %10 = getelementptr inbounds nuw { i64, i64 }, ptr %7, i32 0, i32 0
  store i64 %2, ptr %10, align 4
  %11 = getelementptr inbounds nuw { i64, i64 }, ptr %7, i32 0, i32 1
  store i64 %3, ptr %11, align 4
  %12 = getelementptr inbounds nuw %struct.SoftAesBlock, ptr %5, i32 0, i32 0
  %13 = getelementptr inbounds nuw %struct.SoftAesBlock, ptr %6, i32 0, i32 0
  %14 = load i32, ptr %13, align 4
  %15 = getelementptr inbounds nuw %struct.SoftAesBlock, ptr %7, i32 0, i32 0
  %16 = load i32, ptr %15, align 4
  %17 = xor i32 %14, %16
  store i32 %17, ptr %12, align 4
  %18 = getelementptr inbounds nuw %struct.SoftAesBlock, ptr %5, i32 0, i32 1
  %19 = getelementptr inbounds nuw %struct.SoftAesBlock, ptr %6, i32 0, i32 1
  %20 = load i32, ptr %19, align 4
  %21 = getelementptr inbounds nuw %struct.SoftAesBlock, ptr %7, i32 0, i32 1
  %22 = load i32, ptr %21, align 4
  %23 = xor i32 %20, %22
  store i32 %23, ptr %18, align 4
  %24 = getelementptr inbounds nuw %struct.SoftAesBlock, ptr %5, i32 0, i32 2
  %25 = getelementptr inbounds nuw %struct.SoftAesBlock, ptr %6, i32 0, i32 2
  %26 = load i32, ptr %25, align 4
  %27 = getelementptr inbounds nuw %struct.SoftAesBlock, ptr %7, i32 0, i32 2
  %28 = load i32, ptr %27, align 4
  %29 = xor i32 %26, %28
  store i32 %29, ptr %24, align 4
  %30 = getelementptr inbounds nuw %struct.SoftAesBlock, ptr %5, i32 0, i32 3
  %31 = getelementptr inbounds nuw %struct.SoftAesBlock, ptr %6, i32 0, i32 3
  %32 = load i32, ptr %31, align 4
  %33 = getelementptr inbounds nuw %struct.SoftAesBlock, ptr %7, i32 0, i32 3
  %34 = load i32, ptr %33, align 4
  %35 = xor i32 %32, %34
  store i32 %35, ptr %30, align 4
  %36 = load { i64, i64 }, ptr %5, align 4
  ret { i64, i64 } %36
}

; Function Attrs: inlinehint nounwind ssp uwtable
define internal i32 @load32_le(ptr noundef %0) #2 {
  %2 = alloca ptr, align 8
  %3 = alloca i32, align 4
  store ptr %0, ptr %2, align 8
  call void @llvm.lifetime.start.p0(i64 4, ptr %3) #8
  %4 = load ptr, ptr %2, align 8
  %5 = call ptr @memcpy.inline(ptr noundef %3, ptr noundef %4, i64 noundef 4) #8
  %6 = load i32, ptr %3, align 4
  call void @llvm.lifetime.end.p0(i64 4, ptr %3) #8
  ret i32 %6
}

; Function Attrs: inlinehint nounwind ssp uwtable
define internal void @aegis256_update(ptr noundef %0, i64 %1, i64 %2) #2 {
  %4 = alloca %struct.SoftAesBlock, align 4
  %5 = alloca ptr, align 8
  %6 = alloca %struct.SoftAesBlock, align 4
  %7 = alloca %struct.SoftAesBlock, align 4
  %8 = alloca %struct.SoftAesBlock, align 4
  %9 = alloca %struct.SoftAesBlock, align 4
  %10 = alloca %struct.SoftAesBlock, align 4
  %11 = alloca %struct.SoftAesBlock, align 4
  %12 = alloca %struct.SoftAesBlock, align 4
  %13 = alloca %struct.SoftAesBlock, align 4
  %14 = getelementptr inbounds nuw { i64, i64 }, ptr %4, i32 0, i32 0
  store i64 %1, ptr %14, align 4
  %15 = getelementptr inbounds nuw { i64, i64 }, ptr %4, i32 0, i32 1
  store i64 %2, ptr %15, align 4
  store ptr %0, ptr %5, align 8
  call void @llvm.lifetime.start.p0(i64 16, ptr %6) #8
  %16 = load ptr, ptr %5, align 8
  %17 = getelementptr %struct.SoftAesBlock, ptr %16, i64 5
  call void @llvm.memcpy.p0.p0.i64(ptr align 4 %6, ptr align 4 %17, i64 16, i1 false)
  %18 = load ptr, ptr %5, align 8
  %19 = getelementptr %struct.SoftAesBlock, ptr %18, i64 5
  call void @llvm.lifetime.start.p0(i64 16, ptr %7) #8
  %20 = load ptr, ptr %5, align 8
  %21 = getelementptr %struct.SoftAesBlock, ptr %20, i64 4
  %22 = load ptr, ptr %5, align 8
  %23 = getelementptr %struct.SoftAesBlock, ptr %22, i64 5
  %24 = getelementptr inbounds nuw { i64, i64 }, ptr %21, i32 0, i32 0
  %25 = load i64, ptr %24, align 4
  %26 = getelementptr inbounds nuw { i64, i64 }, ptr %21, i32 0, i32 1
  %27 = load i64, ptr %26, align 4
  %28 = getelementptr inbounds nuw { i64, i64 }, ptr %23, i32 0, i32 0
  %29 = load i64, ptr %28, align 4
  %30 = getelementptr inbounds nuw { i64, i64 }, ptr %23, i32 0, i32 1
  %31 = load i64, ptr %30, align 4
  %32 = call { i64, i64 } @_sodium_softaes_block_encrypt(i64 %25, i64 %27, i64 %29, i64 %31)
  %33 = getelementptr inbounds nuw { i64, i64 }, ptr %7, i32 0, i32 0
  %34 = extractvalue { i64, i64 } %32, 0
  store i64 %34, ptr %33, align 4
  %35 = getelementptr inbounds nuw { i64, i64 }, ptr %7, i32 0, i32 1
  %36 = extractvalue { i64, i64 } %32, 1
  store i64 %36, ptr %35, align 4
  call void @llvm.memcpy.p0.p0.i64(ptr align 4 %19, ptr align 4 %7, i64 16, i1 false)
  call void @llvm.lifetime.end.p0(i64 16, ptr %7) #8
  %37 = load ptr, ptr %5, align 8
  %38 = getelementptr %struct.SoftAesBlock, ptr %37, i64 4
  call void @llvm.lifetime.start.p0(i64 16, ptr %8) #8
  %39 = load ptr, ptr %5, align 8
  %40 = getelementptr %struct.SoftAesBlock, ptr %39, i64 3
  %41 = load ptr, ptr %5, align 8
  %42 = getelementptr %struct.SoftAesBlock, ptr %41, i64 4
  %43 = getelementptr inbounds nuw { i64, i64 }, ptr %40, i32 0, i32 0
  %44 = load i64, ptr %43, align 4
  %45 = getelementptr inbounds nuw { i64, i64 }, ptr %40, i32 0, i32 1
  %46 = load i64, ptr %45, align 4
  %47 = getelementptr inbounds nuw { i64, i64 }, ptr %42, i32 0, i32 0
  %48 = load i64, ptr %47, align 4
  %49 = getelementptr inbounds nuw { i64, i64 }, ptr %42, i32 0, i32 1
  %50 = load i64, ptr %49, align 4
  %51 = call { i64, i64 } @_sodium_softaes_block_encrypt(i64 %44, i64 %46, i64 %48, i64 %50)
  %52 = getelementptr inbounds nuw { i64, i64 }, ptr %8, i32 0, i32 0
  %53 = extractvalue { i64, i64 } %51, 0
  store i64 %53, ptr %52, align 4
  %54 = getelementptr inbounds nuw { i64, i64 }, ptr %8, i32 0, i32 1
  %55 = extractvalue { i64, i64 } %51, 1
  store i64 %55, ptr %54, align 4
  call void @llvm.memcpy.p0.p0.i64(ptr align 4 %38, ptr align 4 %8, i64 16, i1 false)
  call void @llvm.lifetime.end.p0(i64 16, ptr %8) #8
  %56 = load ptr, ptr %5, align 8
  %57 = getelementptr %struct.SoftAesBlock, ptr %56, i64 3
  call void @llvm.lifetime.start.p0(i64 16, ptr %9) #8
  %58 = load ptr, ptr %5, align 8
  %59 = getelementptr %struct.SoftAesBlock, ptr %58, i64 2
  %60 = load ptr, ptr %5, align 8
  %61 = getelementptr %struct.SoftAesBlock, ptr %60, i64 3
  %62 = getelementptr inbounds nuw { i64, i64 }, ptr %59, i32 0, i32 0
  %63 = load i64, ptr %62, align 4
  %64 = getelementptr inbounds nuw { i64, i64 }, ptr %59, i32 0, i32 1
  %65 = load i64, ptr %64, align 4
  %66 = getelementptr inbounds nuw { i64, i64 }, ptr %61, i32 0, i32 0
  %67 = load i64, ptr %66, align 4
  %68 = getelementptr inbounds nuw { i64, i64 }, ptr %61, i32 0, i32 1
  %69 = load i64, ptr %68, align 4
  %70 = call { i64, i64 } @_sodium_softaes_block_encrypt(i64 %63, i64 %65, i64 %67, i64 %69)
  %71 = getelementptr inbounds nuw { i64, i64 }, ptr %9, i32 0, i32 0
  %72 = extractvalue { i64, i64 } %70, 0
  store i64 %72, ptr %71, align 4
  %73 = getelementptr inbounds nuw { i64, i64 }, ptr %9, i32 0, i32 1
  %74 = extractvalue { i64, i64 } %70, 1
  store i64 %74, ptr %73, align 4
  call void @llvm.memcpy.p0.p0.i64(ptr align 4 %57, ptr align 4 %9, i64 16, i1 false)
  call void @llvm.lifetime.end.p0(i64 16, ptr %9) #8
  %75 = load ptr, ptr %5, align 8
  %76 = getelementptr %struct.SoftAesBlock, ptr %75, i64 2
  call void @llvm.lifetime.start.p0(i64 16, ptr %10) #8
  %77 = load ptr, ptr %5, align 8
  %78 = getelementptr %struct.SoftAesBlock, ptr %77, i64 1
  %79 = load ptr, ptr %5, align 8
  %80 = getelementptr %struct.SoftAesBlock, ptr %79, i64 2
  %81 = getelementptr inbounds nuw { i64, i64 }, ptr %78, i32 0, i32 0
  %82 = load i64, ptr %81, align 4
  %83 = getelementptr inbounds nuw { i64, i64 }, ptr %78, i32 0, i32 1
  %84 = load i64, ptr %83, align 4
  %85 = getelementptr inbounds nuw { i64, i64 }, ptr %80, i32 0, i32 0
  %86 = load i64, ptr %85, align 4
  %87 = getelementptr inbounds nuw { i64, i64 }, ptr %80, i32 0, i32 1
  %88 = load i64, ptr %87, align 4
  %89 = call { i64, i64 } @_sodium_softaes_block_encrypt(i64 %82, i64 %84, i64 %86, i64 %88)
  %90 = getelementptr inbounds nuw { i64, i64 }, ptr %10, i32 0, i32 0
  %91 = extractvalue { i64, i64 } %89, 0
  store i64 %91, ptr %90, align 4
  %92 = getelementptr inbounds nuw { i64, i64 }, ptr %10, i32 0, i32 1
  %93 = extractvalue { i64, i64 } %89, 1
  store i64 %93, ptr %92, align 4
  call void @llvm.memcpy.p0.p0.i64(ptr align 4 %76, ptr align 4 %10, i64 16, i1 false)
  call void @llvm.lifetime.end.p0(i64 16, ptr %10) #8
  %94 = load ptr, ptr %5, align 8
  %95 = getelementptr %struct.SoftAesBlock, ptr %94, i64 1
  call void @llvm.lifetime.start.p0(i64 16, ptr %11) #8
  %96 = load ptr, ptr %5, align 8
  %97 = getelementptr %struct.SoftAesBlock, ptr %96, i64 0
  %98 = load ptr, ptr %5, align 8
  %99 = getelementptr %struct.SoftAesBlock, ptr %98, i64 1
  %100 = getelementptr inbounds nuw { i64, i64 }, ptr %97, i32 0, i32 0
  %101 = load i64, ptr %100, align 4
  %102 = getelementptr inbounds nuw { i64, i64 }, ptr %97, i32 0, i32 1
  %103 = load i64, ptr %102, align 4
  %104 = getelementptr inbounds nuw { i64, i64 }, ptr %99, i32 0, i32 0
  %105 = load i64, ptr %104, align 4
  %106 = getelementptr inbounds nuw { i64, i64 }, ptr %99, i32 0, i32 1
  %107 = load i64, ptr %106, align 4
  %108 = call { i64, i64 } @_sodium_softaes_block_encrypt(i64 %101, i64 %103, i64 %105, i64 %107)
  %109 = getelementptr inbounds nuw { i64, i64 }, ptr %11, i32 0, i32 0
  %110 = extractvalue { i64, i64 } %108, 0
  store i64 %110, ptr %109, align 4
  %111 = getelementptr inbounds nuw { i64, i64 }, ptr %11, i32 0, i32 1
  %112 = extractvalue { i64, i64 } %108, 1
  store i64 %112, ptr %111, align 4
  call void @llvm.memcpy.p0.p0.i64(ptr align 4 %95, ptr align 4 %11, i64 16, i1 false)
  call void @llvm.lifetime.end.p0(i64 16, ptr %11) #8
  %113 = load ptr, ptr %5, align 8
  %114 = getelementptr %struct.SoftAesBlock, ptr %113, i64 0
  call void @llvm.lifetime.start.p0(i64 16, ptr %12) #8
  %115 = load ptr, ptr %5, align 8
  %116 = getelementptr %struct.SoftAesBlock, ptr %115, i64 0
  %117 = getelementptr inbounds nuw { i64, i64 }, ptr %6, i32 0, i32 0
  %118 = load i64, ptr %117, align 4
  %119 = getelementptr inbounds nuw { i64, i64 }, ptr %6, i32 0, i32 1
  %120 = load i64, ptr %119, align 4
  %121 = getelementptr inbounds nuw { i64, i64 }, ptr %116, i32 0, i32 0
  %122 = load i64, ptr %121, align 4
  %123 = getelementptr inbounds nuw { i64, i64 }, ptr %116, i32 0, i32 1
  %124 = load i64, ptr %123, align 4
  %125 = call { i64, i64 } @_sodium_softaes_block_encrypt(i64 %118, i64 %120, i64 %122, i64 %124)
  %126 = getelementptr inbounds nuw { i64, i64 }, ptr %13, i32 0, i32 0
  %127 = extractvalue { i64, i64 } %125, 0
  store i64 %127, ptr %126, align 4
  %128 = getelementptr inbounds nuw { i64, i64 }, ptr %13, i32 0, i32 1
  %129 = extractvalue { i64, i64 } %125, 1
  store i64 %129, ptr %128, align 4
  %130 = getelementptr inbounds nuw { i64, i64 }, ptr %13, i32 0, i32 0
  %131 = load i64, ptr %130, align 4
  %132 = getelementptr inbounds nuw { i64, i64 }, ptr %13, i32 0, i32 1
  %133 = load i64, ptr %132, align 4
  %134 = getelementptr inbounds nuw { i64, i64 }, ptr %4, i32 0, i32 0
  %135 = load i64, ptr %134, align 4
  %136 = getelementptr inbounds nuw { i64, i64 }, ptr %4, i32 0, i32 1
  %137 = load i64, ptr %136, align 4
  %138 = call { i64, i64 } @softaes_block_xor(i64 %131, i64 %133, i64 %135, i64 %137)
  %139 = getelementptr inbounds nuw { i64, i64 }, ptr %12, i32 0, i32 0
  %140 = extractvalue { i64, i64 } %138, 0
  store i64 %140, ptr %139, align 4
  %141 = getelementptr inbounds nuw { i64, i64 }, ptr %12, i32 0, i32 1
  %142 = extractvalue { i64, i64 } %138, 1
  store i64 %142, ptr %141, align 4
  call void @llvm.memcpy.p0.p0.i64(ptr align 4 %114, ptr align 4 %12, i64 16, i1 false)
  call void @llvm.lifetime.end.p0(i64 16, ptr %12) #8
  call void @llvm.lifetime.end.p0(i64 16, ptr %6) #8
  ret void
}

; Function Attrs: inlinehint nounwind ssp uwtable
define internal { i64, i64 } @softaes_block_load(ptr noundef %0) #2 {
  %2 = alloca %struct.SoftAesBlock, align 4
  %3 = alloca ptr, align 8
  store ptr %0, ptr %3, align 8
  %4 = getelementptr inbounds nuw %struct.SoftAesBlock, ptr %2, i32 0, i32 0
  %5 = load ptr, ptr %3, align 8
  %6 = getelementptr i8, ptr %5, i64 0
  %7 = call i32 @load32_le(ptr noundef %6)
  store i32 %7, ptr %4, align 4
  %8 = getelementptr inbounds nuw %struct.SoftAesBlock, ptr %2, i32 0, i32 1
  %9 = load ptr, ptr %3, align 8
  %10 = getelementptr i8, ptr %9, i64 4
  %11 = call i32 @load32_le(ptr noundef %10)
  store i32 %11, ptr %8, align 4
  %12 = getelementptr inbounds nuw %struct.SoftAesBlock, ptr %2, i32 0, i32 2
  %13 = load ptr, ptr %3, align 8
  %14 = getelementptr i8, ptr %13, i64 8
  %15 = call i32 @load32_le(ptr noundef %14)
  store i32 %15, ptr %12, align 4
  %16 = getelementptr inbounds nuw %struct.SoftAesBlock, ptr %2, i32 0, i32 3
  %17 = load ptr, ptr %3, align 8
  %18 = getelementptr i8, ptr %17, i64 12
  %19 = call i32 @load32_le(ptr noundef %18)
  store i32 %19, ptr %16, align 4
  %20 = load { i64, i64 }, ptr %2, align 4
  ret { i64, i64 } %20
}

; Function Attrs: inlinehint nounwind ssp uwtable
define internal void @aegis256_absorb2(ptr noundef %0, ptr noundef %1) #2 {
  %3 = alloca ptr, align 8
  %4 = alloca ptr, align 8
  %5 = alloca %struct.SoftAesBlock, align 4
  %6 = alloca %struct.SoftAesBlock, align 4
  %7 = alloca %struct.SoftAesBlock, align 4
  %8 = alloca %struct.SoftAesBlock, align 4
  store ptr %0, ptr %3, align 8
  store ptr %1, ptr %4, align 8
  call void @llvm.lifetime.start.p0(i64 16, ptr %5) #8
  call void @llvm.lifetime.start.p0(i64 16, ptr %6) #8
  call void @llvm.lifetime.start.p0(i64 16, ptr %7) #8
  %9 = load ptr, ptr %3, align 8
  %10 = getelementptr i8, ptr %9, i64 0
  %11 = call { i64, i64 } @softaes_block_load(ptr noundef %10)
  %12 = getelementptr inbounds nuw { i64, i64 }, ptr %7, i32 0, i32 0
  %13 = extractvalue { i64, i64 } %11, 0
  store i64 %13, ptr %12, align 4
  %14 = getelementptr inbounds nuw { i64, i64 }, ptr %7, i32 0, i32 1
  %15 = extractvalue { i64, i64 } %11, 1
  store i64 %15, ptr %14, align 4
  call void @llvm.memcpy.p0.p0.i64(ptr align 4 %5, ptr align 4 %7, i64 16, i1 false)
  call void @llvm.lifetime.end.p0(i64 16, ptr %7) #8
  call void @llvm.lifetime.start.p0(i64 16, ptr %8) #8
  %16 = load ptr, ptr %3, align 8
  %17 = getelementptr i8, ptr %16, i64 16
  %18 = call { i64, i64 } @softaes_block_load(ptr noundef %17)
  %19 = getelementptr inbounds nuw { i64, i64 }, ptr %8, i32 0, i32 0
  %20 = extractvalue { i64, i64 } %18, 0
  store i64 %20, ptr %19, align 4
  %21 = getelementptr inbounds nuw { i64, i64 }, ptr %8, i32 0, i32 1
  %22 = extractvalue { i64, i64 } %18, 1
  store i64 %22, ptr %21, align 4
  call void @llvm.memcpy.p0.p0.i64(ptr align 4 %6, ptr align 4 %8, i64 16, i1 false)
  call void @llvm.lifetime.end.p0(i64 16, ptr %8) #8
  %23 = load ptr, ptr %4, align 8
  %24 = getelementptr inbounds nuw { i64, i64 }, ptr %5, i32 0, i32 0
  %25 = load i64, ptr %24, align 4
  %26 = getelementptr inbounds nuw { i64, i64 }, ptr %5, i32 0, i32 1
  %27 = load i64, ptr %26, align 4
  call void @aegis256_update(ptr noundef %23, i64 %25, i64 %27)
  %28 = load ptr, ptr %4, align 8
  %29 = getelementptr inbounds nuw { i64, i64 }, ptr %6, i32 0, i32 0
  %30 = load i64, ptr %29, align 4
  %31 = getelementptr inbounds nuw { i64, i64 }, ptr %6, i32 0, i32 1
  %32 = load i64, ptr %31, align 4
  call void @aegis256_update(ptr noundef %28, i64 %30, i64 %32)
  call void @llvm.lifetime.end.p0(i64 16, ptr %6) #8
  call void @llvm.lifetime.end.p0(i64 16, ptr %5) #8
  ret void
}