; Function Attrs: inlinehint nounwind ssp uwtable
define internal fastcc void @aegis256_absorb2(ptr noundef readonly captures(none) %0, ptr noundef nonnull captures(none) %1) unnamed_addr #2 {
  %3 = load i64, ptr %0, align 1
  %4 = getelementptr i8, ptr %0, i64 8
  %5 = load i64, ptr %4, align 1
  %6 = getelementptr i8, ptr %0, i64 16
  %7 = load i64, ptr %6, align 1
  %8 = getelementptr i8, ptr %0, i64 24
  %9 = load i64, ptr %8, align 1
  %10 = getelementptr i8, ptr %1, i64 80
  %.sroa.012.0.copyload.i = load i64, ptr %10, align 4
  %.sroa.413.0..sroa_idx.i = getelementptr i8, ptr %1, i64 88
  %.sroa.413.0.copyload.i = load i64, ptr %.sroa.413.0..sroa_idx.i, align 4
  %11 = getelementptr i8, ptr %1, i64 64
  %12 = load i64, ptr %11, align 4
  %13 = getelementptr i8, ptr %1, i64 72
  %14 = load i64, ptr %13, align 4
  %15 = tail call { i64, i64 } @_sodium_softaes_block_encrypt(i64 %12, i64 %14, i64 %.sroa.012.0.copyload.i, i64 %.sroa.413.0.copyload.i) #7
  %16 = extractvalue { i64, i64 } %15, 0
  %17 = extractvalue { i64, i64 } %15, 1
  store i64 %16, ptr %10, align 4
  store i64 %17, ptr %.sroa.413.0..sroa_idx.i, align 4
  %18 = getelementptr i8, ptr %1, i64 48
  %19 = load i64, ptr %18, align 4
  %20 = getelementptr i8, ptr %1, i64 56
  %21 = load i64, ptr %20, align 4
  %22 = load i64, ptr %11, align 4
  %23 = load i64, ptr %13, align 4
  %24 = tail call { i64, i64 } @_sodium_softaes_block_encrypt(i64 %19, i64 %21, i64 %22, i64 %23) #7
  %25 = extractvalue { i64, i64 } %24, 0
  %26 = extractvalue { i64, i64 } %24, 1
  store i64 %25, ptr %11, align 4
  store i64 %26, ptr %13, align 4
  %27 = getelementptr i8, ptr %1, i64 32
  %28 = load i64, ptr %27, align 4
  %29 = getelementptr i8, ptr %1, i64 40
  %30 = load i64, ptr %29, align 4
  %31 = load i64, ptr %18, align 4
  %32 = load i64, ptr %20, align 4
  %33 = tail call { i64, i64 } @_sodium_softaes_block_encrypt(i64 %28, i64 %30, i64 %31, i64 %32) #7
  %34 = extractvalue { i64, i64 } %33, 0
  %35 = extractvalue { i64, i64 } %33, 1
  store i64 %34, ptr %18, align 4
  store i64 %35, ptr %20, align 4
  %36 = getelementptr i8, ptr %1, i64 16
  %37 = load i64, ptr %36, align 4
  %38 = getelementptr i8, ptr %1, i64 24
  %39 = load i64, ptr %38, align 4
  %40 = load i64, ptr %27, align 4
  %41 = load i64, ptr %29, align 4
  %42 = tail call { i64, i64 } @_sodium_softaes_block_encrypt(i64 %37, i64 %39, i64 %40, i64 %41) #7
  %43 = extractvalue { i64, i64 } %42, 0
  %44 = extractvalue { i64, i64 } %42, 1
  store i64 %43, ptr %27, align 4
  store i64 %44, ptr %29, align 4
  %45 = load i64, ptr %1, align 4
  %46 = getelementptr inbounds nuw i8, ptr %1, i64 8
  %47 = load i64, ptr %46, align 4
  %48 = load i64, ptr %36, align 4
  %49 = load i64, ptr %38, align 4
  %50 = tail call { i64, i64 } @_sodium_softaes_block_encrypt(i64 %45, i64 %47, i64 %48, i64 %49) #7
  %51 = extractvalue { i64, i64 } %50, 0
  %52 = extractvalue { i64, i64 } %50, 1
  store i64 %51, ptr %36, align 4
  store i64 %52, ptr %38, align 4
  %53 = load i64, ptr %1, align 4
  %54 = load i64, ptr %46, align 4
  %55 = tail call { i64, i64 } @_sodium_softaes_block_encrypt(i64 %.sroa.012.0.copyload.i, i64 %.sroa.413.0.copyload.i, i64 %53, i64 %54) #7
  %56 = extractvalue { i64, i64 } %55, 0
  %57 = extractvalue { i64, i64 } %55, 1
  %58 = xor i64 %56, %3
  %59 = xor i64 %57, %5
  store i64 %58, ptr %1, align 4
  store i64 %59, ptr %46, align 4
  %.sroa.012.0.copyload.i12 = load i64, ptr %10, align 4
  %.sroa.413.0.copyload.i14 = load i64, ptr %.sroa.413.0..sroa_idx.i, align 4
  %60 = load i64, ptr %11, align 4
  %61 = load i64, ptr %13, align 4
  %62 = tail call { i64, i64 } @_sodium_softaes_block_encrypt(i64 %60, i64 %61, i64 %.sroa.012.0.copyload.i12, i64 %.sroa.413.0.copyload.i14) #7
  %63 = extractvalue { i64, i64 } %62, 0
  %64 = extractvalue { i64, i64 } %62, 1
  store i64 %63, ptr %10, align 4
  store i64 %64, ptr %.sroa.413.0..sroa_idx.i, align 4
  %65 = load i64, ptr %18, align 4
  %66 = load i64, ptr %20, align 4
  %67 = load i64, ptr %11, align 4
  %68 = load i64, ptr %13, align 4
  %69 = tail call { i64, i64 } @_sodium_softaes_block_encrypt(i64 %65, i64 %66, i64 %67, i64 %68) #7
  %70 = extractvalue { i64, i64 } %69, 0
  %71 = extractvalue { i64, i64 } %69, 1
  store i64 %70, ptr %11, align 4
  store i64 %71, ptr %13, align 4
  %72 = load i64, ptr %27, align 4
  %73 = load i64, ptr %29, align 4
  %74 = load i64, ptr %18, align 4
  %75 = load i64, ptr %20, align 4
  %76 = tail call { i64, i64 } @_sodium_softaes_block_encrypt(i64 %72, i64 %73, i64 %74, i64 %75) #7
  %77 = extractvalue { i64, i64 } %76, 0
  %78 = extractvalue { i64, i64 } %76, 1
  store i64 %77, ptr %18, align 4
  store i64 %78, ptr %20, align 4
  %79 = load i64, ptr %36, align 4
  %80 = load i64, ptr %38, align 4
  %81 = load i64, ptr %27, align 4
  %82 = load i64, ptr %29, align 4
  %83 = tail call { i64, i64 } @_sodium_softaes_block_encrypt(i64 %79, i64 %80, i64 %81, i64 %82) #7
  %84 = extractvalue { i64, i64 } %83, 0
  %85 = extractvalue { i64, i64 } %83, 1
  store i64 %84, ptr %27, align 4
  store i64 %85, ptr %29, align 4
  %86 = load i64, ptr %1, align 4
  %87 = load i64, ptr %46, align 4
  %88 = load i64, ptr %36, align 4
  %89 = load i64, ptr %38, align 4
  %90 = tail call { i64, i64 } @_sodium_softaes_block_encrypt(i64 %86, i64 %87, i64 %88, i64 %89) #7
  %91 = extractvalue { i64, i64 } %90, 0
  %92 = extractvalue { i64, i64 } %90, 1
  store i64 %91, ptr %36, align 4
  store i64 %92, ptr %38, align 4
  %93 = load i64, ptr %1, align 4
  %94 = load i64, ptr %46, align 4
  %95 = tail call { i64, i64 } @_sodium_softaes_block_encrypt(i64 %.sroa.012.0.copyload.i12, i64 %.sroa.413.0.copyload.i14, i64 %93, i64 %94) #7
  %96 = extractvalue { i64, i64 } %95, 0
  %97 = extractvalue { i64, i64 } %95, 1
  %98 = xor i64 %96, %7
  %99 = xor i64 %97, %9
  store i64 %98, ptr %1, align 4
  store i64 %99, ptr %46, align 4
  ret void
}